LIBRARY	libCommon
;
EXPORTS
;ArrayList
ArrayList_Init
ArrayListCreateByProc
ArrayListDestroy
ArrayListGetAtIndex
ArrayListGetAtData
ArrayListGetPrev
ArrayListGetNext
ArrayListGetCount
ArrayListGetSize
ArrayListGetNoUsedID
ArrayListGetAt
ArrayListGetData
ArrayListGetHead
ArrayListGetTail
ArrayListAddAt
ArrayListSetAt
ArrayListEraseAt
ArrayListEraseAtSort
ArrayListRemoveAll

;DllLoad
DllLoadInit
LoadOneFile
ReleaseLoad
GetFileDirectoryName
GetFileDirectoryModule
LoadDll
FreeDll
??0CDllLoad@@QAE@XZ
??1CDllLoad@@QAE@XZ
?LoadFile@CDllLoad@@QAEHPBD0@Z
?ReleaseAll@CDllLoad@@QAEXXZ

;GraphFormula
MatrixToRect
RectToMatrix
RectExchange

;MsgWnd
InitMsgWnd
MsgWndInit
MsgWnd_FromWnd
MsgWnd_Create
MsgWnd_AddWnd
MsgWnd_Release
MsgWnd_CreateWindow
MsgWnd_DoModule
MsgWnd_Move
MsgWnd_MoveLe
ComboBox_GetSelectData
ComboBox_SetSelectByData
ListBox_GetSelectData
ListBox_SetSelectByData
?FromWnd@CMsgWnd@@SAPAV1@PAUHWND__@@@Z
?InitCommCtrl@CMsgWnd@@SAXXZ
??0CMsgWnd@@QAE@PAUHWND__@@@Z
??1CMsgWnd@@UAE@XZ
?CreateWnd@CMsgWnd@@QAEPAUHWND__@@PAUHINSTANCE__@@GG@Z
?ModuleWnd@CMsgWnd@@QAEHPAUHINSTANCE__@@GG@Z
??BCMsgWnd@@QAEPAUHWND__@@XZ
?MoveWindow@CMsgWnd@@UAEXHH@Z
?MoveWindow@CMsgWnd@@UAEXHHHH@Z
?OnCommand@CMsgWnd@@MAEXGGPAUHWND__@@@Z
?OnInitDialog@CMsgWnd@@MAEHPAUHWND__@@@Z
?OnPaint@CMsgWnd@@MAEXPAUHDC__@@@Z
?OnUserMsg@CMsgWnd@@MAEHIIJ@Z
?OnDestroy@CMsgWnd@@MAEXXZ
?OnClose@CMsgWnd@@MAEXXZ
?OnTimer@CMsgWnd@@MAEXHP6GXPAUHWND__@@IIK@Z@Z
?OnNotify@CMsgWnd@@MAEHHPAUtagNMHDR@@@Z

;SyncLock
SyncLock_CreateWithNamed
SyncLock_Destroy
SyncLock_Lock
SyncLock_Unlock
??0CSyncLock@@QAE@XZ
??0CSyncLock@@QAE@PBD@Z
??1CSyncLock@@QAE@XZ
?Lock@CSyncLock@@QAEHI@Z
?Unlock@CSyncLock@@QAEHXZ

;SyncEvent
SyncEvent_CreateWithNamed
SyncEvent_Destroy
SyncEvent_Wait
SyncEvent_Set
??0CSyncEvent@@QAE@XZ
??0CSyncEvent@@QAE@PBD@Z
??1CSyncEvent@@QAE@XZ
?WaitEvent@CSyncEvent@@QAEHI@Z
?SetEvent@CSyncEvent@@QAEHXZ

;ThreadPulse
ThreadPulseInit
ThreadPulse_StartWithNamed
ThreadPulse_Stop
ThreadPulse_IsPulseEnd
ThreadPulse_Impulse
ThreadPulse_WaitPulseEnd
??0CThreadPulse@@QAE@XZ
??1CThreadPulse@@QAE@XZ
?Start@CThreadPulse@@QAEHIP6GHIPAX@ZP6GXII0@ZI0@Z
?Start@CThreadPulse@@QAEHIPBDP6GHIPAX@ZP6GXII1@ZI1@Z
?Stop@CThreadPulse@@QAEXXZ
?Impulse@CThreadPulse@@QAEXXZ
?IsPulseEnd@CThreadPulse@@QAEHXZ
?WaitPulseEnd@CThreadPulse@@QAEXXZ

;ValArray
ValArray_Init
ValArrayCreateByProc
ValArrayRelease
ValArrayGetAtIndex
ValArrayGetAtData
ValArrayGetSize
ValArrayGetNoUsedID
ValArrayGetAt
ValArrayGetData
ValArrayAddAt
ValArraySetAt
ValArrayEraseAt
ValArrayEraseAtSort
ValArrayRemoveAll

;WriteLog
MakeDirectory
SetLogPath
EnableLog
WriteLogV
WriteLog
WriteLog1
WriteLog2
WriteLog3
LogOpen
LogClose
LogCloseFree
LogWriteV
LogWrite
TRACE

;FrameBuffer
InitFrameBuffer
FrameBuffer_CreateWithNamed
FrameBuffer_Release
FrameBuffer_Write
FrameBuffer_Read
FrameBuffer_ReSume
FrameBuffer_Pause
??0CFrameBuffer@@QAE@XZ
??1CFrameBuffer@@QAE@XZ
?InitBuffer@CFrameBuffer@@QAEHHIP6GIHPAEI0I@ZPBDH@Z
?UnInitBuffer@CFrameBuffer@@QAEXXZ
?ReSume@CFrameBuffer@@QAEHXZ
?Pause@CFrameBuffer@@QAEXXZ
?WriteBuffer@CFrameBuffer@@QAEXPAEI0I@Z
?ReadBuffer@CFrameBuffer@@QAEXP6GIHPAEI0I@Z@Z

;SimpleUtils
Utils_Create
Utils_Release
Utils_Reset
Utils_InputString
Utils_GetParam
Utils_GetParamToInt
Utils_SetHead
Utils_AddParam
Utils_AddParamInt
Utils_GetUtilsString
??0CSimpleUtils@@QAE@XZ
??1CSimpleUtils@@QAE@XZ
?Reset@CSimpleUtils@@QAEXXZ
?InputString@CSimpleUtils@@QAEHPAD@Z
?GetParam@CSimpleUtils@@QAEHPAD0H0@Z
?GetParamToInt@CSimpleUtils@@QAEHPADPAHH@Z
?GetParamToStruct@CSimpleUtils@@QAEHPADPAEH@Z
?SetHead@CSimpleUtils@@QAEHPAD@Z
?AddParam@CSimpleUtils@@QAEHPAD0@Z
?AddParamInt@CSimpleUtils@@QAEHPADH@Z
?AddParamStruct@CSimpleUtils@@QAEHPADPAEH@Z
?GetUtilsString@CSimpleUtils@@QAEHPADH@Z
